target datalayout = "e-m:e-p270:32:32-p271:32:32-p272:64:64-i64:64-i128:128-f80:128-n8:16:32:64-S128"
target triple = "x86_64-pc-linux-gnu"

%struct.b2Vec2 = type { float, float }
%struct.b2ChainShapeArray = type { ptr, i32, i32 }
%struct.b2ShapeArray = type { ptr, i32, i32 }
%struct.b2Filter = type { i64, i64, i32 }
%struct.b2Shape = type { i32, i32, i32, i32, i32, i32, float, float, float, float, float, i32, %struct.b2AABB, %struct.b2AABB, %struct.b2Vec2, i32, %struct.b2Filter, ptr, i32, %union.anon.0, i16, i8, i8, i8, i8 }
%struct.b2AABB = type { %struct.b2Vec2, %struct.b2Vec2 }
%union.anon.0 = type { %struct.b2Polygon }
%struct.b2Polygon = type { [8 x %struct.b2Vec2], [8 x %struct.b2Vec2], %struct.b2Vec2, float, i32 }
%struct.b2World = type { %struct.b2ArenaAllocator, %struct.b2BroadPhase, %struct.b2ConstraintGraph, %struct.b2IdPool, %struct.b2BodyArray, %struct.b2IdPool, %struct.b2SolverSetArray, %struct.b2IdPool, %struct.b2JointArray, %struct.b2IdPool, %struct.b2ContactArray, %struct.b2IdPool, %struct.b2IslandArray, %struct.b2IdPool, %struct.b2IdPool, %struct.b2ShapeArray, %struct.b2ChainShapeArray, %struct.b2SensorArray, %struct.b2TaskContextArray, %struct.b2SensorTaskContextArray, %struct.b2BodyMoveEventArray, %struct.b2SensorBeginTouchEventArray, %struct.b2ContactBeginTouchEventArray, [2 x %struct.b2SensorEndTouchEventArray], [2 x %struct.b2ContactEndTouchEventArray], i32, %struct.b2ContactHitEventArray, %struct.b2BitSet, %struct.b2BitSet, %struct.b2BitSet, i64, i32, %struct.b2Vec2, float, float, float, float, float, float, float, float, ptr, ptr, i16, %struct.b2Profile, ptr, ptr, ptr, ptr, i32, ptr, ptr, ptr, ptr, ptr, float, i32, i32, i16, i8, i8, i8, i8, i8, i8 }
%struct.b2ArenaAllocator = type { ptr, i32, i32, i32, i32, %struct.b2ArenaEntryArray }
%struct.b2ArenaEntryArray = type { ptr, i32, i32 }
%struct.b2BroadPhase = type { [3 x %struct.b2DynamicTree], i32, %struct.b2HashSet, %struct.b2IntArray, ptr, ptr, i32, %struct.b2AtomicInt, %struct.b2HashSet }
%struct.b2DynamicTree = type { ptr, i32, i32, i32, i32, i32, ptr, ptr, ptr, ptr, i32 }
%struct.b2IntArray = type { ptr, i32, i32 }
%struct.b2AtomicInt = type { i32 }
%struct.b2HashSet = type { ptr, i32, i32 }
%struct.b2ConstraintGraph = type { [12 x %struct.b2GraphColor] }
%struct.b2GraphColor = type { %struct.b2BitSet, %struct.b2ContactSimArray, %struct.b2JointSimArray, %union.anon }
%struct.b2ContactSimArray = type { ptr, i32, i32 }
%struct.b2JointSimArray = type { ptr, i32, i32 }
%union.anon = type { ptr }
%struct.b2BodyArray = type { ptr, i32, i32 }
%struct.b2SolverSetArray = type { ptr, i32, i32 }
%struct.b2JointArray = type { ptr, i32, i32 }
%struct.b2ContactArray = type { ptr, i32, i32 }
%struct.b2IslandArray = type { ptr, i32, i32 }
%struct.b2IdPool = type { %struct.b2IntArray, i32 }
%struct.b2SensorArray = type { ptr, i32, i32 }
%struct.b2TaskContextArray = type { ptr, i32, i32 }
%struct.b2SensorTaskContextArray = type { ptr, i32, i32 }
%struct.b2BodyMoveEventArray = type { ptr, i32, i32 }
%struct.b2SensorBeginTouchEventArray = type { ptr, i32, i32 }
%struct.b2ContactBeginTouchEventArray = type { ptr, i32, i32 }
%struct.b2SensorEndTouchEventArray = type { ptr, i32, i32 }
%struct.b2ContactEndTouchEventArray = type { ptr, i32, i32 }
%struct.b2ContactHitEventArray = type { ptr, i32, i32 }
%struct.b2BitSet = type { ptr, i32, i32 }
%struct.b2Profile = type { float, float, float, float, float, float, float, float, float, float, float, float, float, float, float, float, float, float, float, float, float, float }
%struct.b2ChainId = type { i32, i16, i16 }
%struct.b2ChainShape = type { i32, i32, i32, i32, i32, ptr, ptr, i16 }
%struct.b2SurfaceMaterial = type { float, float, float, float, i32, i32 }

; Function Attrs: inlinehint nounwind uwtable
define internal ptr @b2ChainShapeArray_Get(ptr noundef %0, i32 noundef %1) #7 {
  %3 = alloca ptr, align 8
  %4 = alloca i32, align 4
  store ptr %0, ptr %3, align 8, !tbaa !12
  store i32 %1, ptr %4, align 4, !tbaa !3
  %5 = load ptr, ptr %3, align 8, !tbaa !12
  %6 = getelementptr inbounds nuw %struct.b2ChainShapeArray, ptr %5, i32 0, i32 0
  %7 = load ptr, ptr %6, align 8, !tbaa !7
  %8 = load i32, ptr %4, align 4, !tbaa !3
  %9 = sext i32 %8 to i64
  %10 = getelementptr inbounds %struct.b2ChainShape, ptr %7, i64 %9
  ret ptr %10
}

; Function Attrs: inlinehint nounwind uwtable
define internal ptr @b2ShapeArray_Get(ptr noundef %0, i32 noundef %1) #7 {
  %3 = alloca ptr, align 8
  %4 = alloca i32, align 4
  store ptr %0, ptr %3, align 8, !tbaa !12
  store i32 %1, ptr %4, align 4, !tbaa !3
  %5 = load ptr, ptr %3, align 8, !tbaa !12
  %6 = getelementptr inbounds nuw %struct.b2ShapeArray, ptr %5, i32 0, i32 0
  %7 = load ptr, ptr %6, align 8, !tbaa !14
  %8 = load i32, ptr %4, align 4, !tbaa !3
  %9 = sext i32 %8 to i64
  %10 = getelementptr inbounds %struct.b2Shape, ptr %7, i64 %9
  ret ptr %10
}

; Function Attrs: nounwind uwtable
define internal ptr @b2GetChainShape(ptr noundef %0, i64 %1) #0 {
  %3 = alloca %struct.b2ChainId, align 4
  %4 = alloca ptr, align 8
  %5 = alloca i32, align 4
  %6 = alloca ptr, align 8
  store i64 %1, ptr %3, align 4
  store ptr %0, ptr %4, align 8, !tbaa !26
  call void @llvm.lifetime.start.p0(i64 4, ptr %5) #9
  %7 = getelementptr inbounds nuw %struct.b2ChainId, ptr %3, i32 0, i32 0
  %8 = load i32, ptr %7, align 4, !tbaa !138
  %9 = sub nsw i32 %8, 1
  store i32 %9, ptr %5, align 4, !tbaa !3
  call void @llvm.lifetime.start.p0(i64 8, ptr %6) #9
  %10 = load ptr, ptr %4, align 8, !tbaa !26
  %11 = getelementptr inbounds nuw %struct.b2World, ptr %10, i32 0, i32 16
  %12 = load i32, ptr %5, align 4, !tbaa !3
  %13 = call ptr @b2ChainShapeArray_Get(ptr noundef %11, i32 noundef %12)
  store ptr %13, ptr %6, align 8, !tbaa !143
  %14 = load ptr, ptr %6, align 8, !tbaa !143
  call void @llvm.lifetime.end.p0(i64 8, ptr %6) #9
  call void @llvm.lifetime.end.p0(i64 4, ptr %5) #9
  ret ptr %14
}

; Function Attrs: nounwind uwtable
define void @b2Chain_SetRestitution(i64 %0, float noundef %1) #0 {
  %3 = alloca %struct.b2ChainId, align 4
  %4 = alloca float, align 4
  %5 = alloca ptr, align 8
  %6 = alloca i32, align 4
  %7 = alloca ptr, align 8
  %8 = alloca i32, align 4
  %9 = alloca i32, align 4
  %10 = alloca i32, align 4
  %11 = alloca i32, align 4
  %12 = alloca i32, align 4
  %13 = alloca ptr, align 8
  store i64 %0, ptr %3, align 4
  store float %1, ptr %4, align 4, !tbaa !50
  call void @llvm.lifetime.start.p0(i64 8, ptr %5) #9
  %14 = getelementptr inbounds nuw %struct.b2ChainId, ptr %3, i32 0, i32 1
  %15 = load i16, ptr %14, align 4, !tbaa !140
  %16 = zext i16 %15 to i32
  %17 = call ptr @b2GetWorldLocked(i32 noundef %16)
  store ptr %17, ptr %5, align 8, !tbaa !26
  %18 = load ptr, ptr %5, align 8, !tbaa !26
  %19 = icmp eq ptr %18, null
  br i1 %19, label %20, label %21

20:                                               ; preds = %2
  store i32 1, ptr %6, align 4
  br label %73

21:                                               ; preds = %2
  call void @llvm.lifetime.start.p0(i64 8, ptr %7) #9
  %22 = load ptr, ptr %5, align 8, !tbaa !26
  %23 = load i64, ptr %3, align 4
  %24 = call ptr @b2GetChainShape(ptr noundef %22, i64 %23)
  store ptr %24, ptr %7, align 8, !tbaa !143
  call void @llvm.lifetime.start.p0(i64 4, ptr %8) #9
  %25 = load ptr, ptr %7, align 8, !tbaa !143
  %26 = getelementptr inbounds nuw %struct.b2ChainShape, ptr %25, i32 0, i32 4
  %27 = load i32, ptr %26, align 8, !tbaa !155
  store i32 %27, ptr %8, align 4, !tbaa !3
  call void @llvm.lifetime.start.p0(i64 4, ptr %9) #9
  store i32 0, ptr %9, align 4, !tbaa !3
  br label %28

28:                                               ; preds = %42, %21
  %29 = load i32, ptr %9, align 4, !tbaa !3
  %30 = load i32, ptr %8, align 4, !tbaa !3
  %31 = icmp slt i32 %29, %30
  br i1 %31, label %33, label %32

32:                                               ; preds = %28
  store i32 2, ptr %6, align 4
  call void @llvm.lifetime.end.p0(i64 4, ptr %9) #9
  br label %45

33:                                               ; preds = %28
  %34 = load float, ptr %4, align 4, !tbaa !50
  %35 = load ptr, ptr %7, align 8, !tbaa !143
  %36 = getelementptr inbounds nuw %struct.b2ChainShape, ptr %35, i32 0, i32 6
  %37 = load ptr, ptr %36, align 8, !tbaa !156
  %38 = load i32, ptr %9, align 4, !tbaa !3
  %39 = sext i32 %38 to i64
  %40 = getelementptr inbounds %struct.b2SurfaceMaterial, ptr %37, i64 %39
  %41 = getelementptr inbounds nuw %struct.b2SurfaceMaterial, ptr %40, i32 0, i32 1
  store float %34, ptr %41, align 4, !tbaa !180
  br label %42

42:                                               ; preds = %33
  %43 = load i32, ptr %9, align 4, !tbaa !3
  %44 = add nsw i32 %43, 1
  store i32 %44, ptr %9, align 4, !tbaa !3
  br label %28, !llvm.loop !281

45:                                               ; preds = %32
  call void @llvm.lifetime.start.p0(i64 4, ptr %10) #9
  %46 = load ptr, ptr %7, align 8, !tbaa !143
  %47 = getelementptr inbounds nuw %struct.b2ChainShape, ptr %46, i32 0, i32 3
  %48 = load i32, ptr %47, align 4, !tbaa !171
  store i32 %48, ptr %10, align 4, !tbaa !3
  call void @llvm.lifetime.start.p0(i64 4, ptr %11) #9
  store i32 0, ptr %11, align 4, !tbaa !3
  br label %49

49:                                               ; preds = %69, %45
  %50 = load i32, ptr %11, align 4, !tbaa !3
  %51 = load i32, ptr %10, align 4, !tbaa !3
  %52 = icmp slt i32 %50, %51
  br i1 %52, label %54, label %53

53:                                               ; preds = %49
  store i32 5, ptr %6, align 4
  call void @llvm.lifetime.end.p0(i64 4, ptr %11) #9
  br label %72

54:                                               ; preds = %49
  call void @llvm.lifetime.start.p0(i64 4, ptr %12) #9
  %55 = load ptr, ptr %7, align 8, !tbaa !143
  %56 = getelementptr inbounds nuw %struct.b2ChainShape, ptr %55, i32 0, i32 5
  %57 = load ptr, ptr %56, align 8, !tbaa !172
  %58 = load i32, ptr %11, align 4, !tbaa !3
  %59 = sext i32 %58 to i64
  %60 = getelementptr inbounds i32, ptr %57, i64 %59
  %61 = load i32, ptr %60, align 4, !tbaa !3
  store i32 %61, ptr %12, align 4, !tbaa !3
  call void @llvm.lifetime.start.p0(i64 8, ptr %13) #9
  %62 = load ptr, ptr %5, align 8, !tbaa !26
  %63 = getelementptr inbounds nuw %struct.b2World, ptr %62, i32 0, i32 15
  %64 = load i32, ptr %12, align 4, !tbaa !3
  %65 = call ptr @b2ShapeArray_Get(ptr noundef %63, i32 noundef %64)
  store ptr %65, ptr %13, align 8, !tbaa !34
  %66 = load float, ptr %4, align 4, !tbaa !50
  %67 = load ptr, ptr %13, align 8, !tbaa !34
  %68 = getelementptr inbounds nuw %struct.b2Shape, ptr %67, i32 0, i32 8
  store float %66, ptr %68, align 8, !tbaa !205
  call void @llvm.lifetime.end.p0(i64 8, ptr %13) #9
  call void @llvm.lifetime.end.p0(i64 4, ptr %12) #9
  br label %69

69:                                               ; preds = %54
  %70 = load i32, ptr %11, align 4, !tbaa !3
  %71 = add nsw i32 %70, 1
  store i32 %71, ptr %11, align 4, !tbaa !3
  br label %49, !llvm.loop !282

72:                                               ; preds = %53
  call void @llvm.lifetime.end.p0(i64 4, ptr %10) #9
  call void @llvm.lifetime.end.p0(i64 4, ptr %8) #9
  call void @llvm.lifetime.end.p0(i64 8, ptr %7) #9
  store i32 0, ptr %6, align 4
  br label %73

73:                                               ; preds = %72, %20
  call void @llvm.lifetime.end.p0(i64 8, ptr %5) #9
  %74 = load i32, ptr %6, align 4
  switch i32 %74, label %76 [
    i32 0, label %75
    i32 1, label %75
  ]

75:                                               ; preds = %73, %73
  ret void

76:                                               ; preds = %73
  unreachable
}